target datalayout = "e-m:e-p270:32:32-p271:32:32-p272:64:64-i64:64-i128:128-f80:128-n8:16:32:64-S128"
target triple = "x86_64-pc-linux-gnu"

%struct.location = type { i32, i32 }
%struct.block = type { ptr, ptr }
%struct.inst = type { ptr, ptr, i32, %struct.anon, ptr, %struct.location, ptr, ptr, i32, i32, i32, i32, %struct.block, %struct.block, ptr, i32 }
%struct.anon = type { i16, ptr, %struct.jv, ptr }
%struct.jv = type { i8, i8, i16, i32, %union.anon }
%union.anon = type { ptr }

; Function Attrs: nounwind uwtable
define internal i32 @count_cfunctions(ptr %0, ptr %1) #0 {
  %3 = alloca %struct.block, align 8
  %4 = alloca i32, align 4
  %5 = alloca ptr, align 8
  %6 = getelementptr inbounds nuw { ptr, ptr }, ptr %3, i32 0, i32 0
  store ptr %0, ptr %6, align 8
  %7 = getelementptr inbounds nuw { ptr, ptr }, ptr %3, i32 0, i32 1
  store ptr %1, ptr %7, align 8
  call void @llvm.lifetime.start.p0(i64 4, ptr %4) #7
  store i32 0, ptr %4, align 4, !tbaa !26
  call void @llvm.lifetime.start.p0(i64 8, ptr %5) #7
  %8 = getelementptr inbounds nuw %struct.block, ptr %3, i32 0, i32 0
  %9 = load ptr, ptr %8, align 8, !tbaa !4
  store ptr %9, ptr %5, align 8, !tbaa !13
  br label %10

10:                                               ; preds = %32, %2
  %11 = load ptr, ptr %5, align 8, !tbaa !13
  %12 = icmp ne ptr %11, null
  br i1 %12, label %14, label %13

13:                                               ; preds = %10
  call void @llvm.lifetime.end.p0(i64 8, ptr %5) #7
  br label %36

14:                                               ; preds = %10
  %15 = load ptr, ptr %5, align 8, !tbaa !13
  %16 = getelementptr inbounds nuw %struct.inst, ptr %15, i32 0, i32 2
  %17 = load i32, ptr %16, align 8, !tbaa !33
  %18 = icmp eq i32 %17, 34
  br i1 %18, label %19, label %22

19:                                               ; preds = %14
  %20 = load i32, ptr %4, align 4, !tbaa !26
  %21 = add nsw i32 %20, 1
  store i32 %21, ptr %4, align 4, !tbaa !26
  br label %22

22:                                               ; preds = %19, %14
  %23 = load ptr, ptr %5, align 8, !tbaa !13
  %24 = getelementptr inbounds nuw %struct.inst, ptr %23, i32 0, i32 12
  %25 = getelementptr inbounds nuw { ptr, ptr }, ptr %24, i32 0, i32 0
  %26 = load ptr, ptr %25, align 8
  %27 = getelementptr inbounds nuw { ptr, ptr }, ptr %24, i32 0, i32 1
  %28 = load ptr, ptr %27, align 8
  %29 = call i32 @count_cfunctions(ptr %26, ptr %28)
  %30 = load i32, ptr %4, align 4, !tbaa !26
  %31 = add nsw i32 %30, %29
  store i32 %31, ptr %4, align 4, !tbaa !26
  br label %32

32:                                               ; preds = %22
  %33 = load ptr, ptr %5, align 8, !tbaa !13
  %34 = getelementptr inbounds nuw %struct.inst, ptr %33, i32 0, i32 0
  %35 = load ptr, ptr %34, align 8, !tbaa !28
  store ptr %35, ptr %5, align 8, !tbaa !13
  br label %10, !llvm.loop !90

36:                                               ; preds = %13
  %37 = load i32, ptr %4, align 4, !tbaa !26
  call void @llvm.lifetime.end.p0(i64 4, ptr %4) #7
  ret i32 %37
}