; Function Attrs: nofree nosync nounwind memory(read, inaccessiblemem: none) uwtable
define internal fastcc i32 @count_cfunctions(ptr readonly captures(address_is_null) %0) unnamed_addr #15 {
  %.not1 = icmp eq ptr %0, null
  br i1 %.not1, label %._crit_edge, label %.lr.ph

._crit_edge:                                      ; preds = %.lr.ph, %1
  %.06.lcssa = phi i32 [ 0, %1 ], [ %9, %.lr.ph ]
  ret i32 %.06.lcssa

.lr.ph:                                           ; preds = %1, %.lr.ph
  %.03 = phi ptr [ %10, %.lr.ph ], [ %0, %1 ]
  %.062 = phi i32 [ %9, %.lr.ph ], [ 0, %1 ]
  %2 = getelementptr inbounds nuw i8, ptr %.03, i64 16
  %3 = load i32, ptr %2, align 8, !tbaa !25
  %4 = icmp eq i32 %3, 34
  %5 = zext i1 %4 to i32
  %spec.select = add nsw i32 %.062, %5
  %6 = getelementptr inbounds nuw i8, ptr %.03, i64 112
  %7 = load ptr, ptr %6, align 8
  %8 = tail call fastcc i32 @count_cfunctions(ptr %7)
  %9 = add nsw i32 %spec.select, %8
  %10 = load ptr, ptr %.03, align 8, !tbaa !22
  %.not = icmp eq ptr %10, null
  br i1 %.not, label %._crit_edge, label %.lr.ph, !llvm.loop !78
}